; Function Attrs: mustprogress nounwind uwtable
define hidden ptr @assimp_stbi_zlib_decode_malloc(ptr noundef %buffer, i32 noundef %len, ptr noundef writeonly %outlen) local_unnamed_addr #0 {
entry:
  %a.i = alloca %struct.stbi__zbuf, align 8
  call void @llvm.lifetime.start.p0(i64 4096, ptr nonnull %a.i)
  %call.i.i = tail call noalias noundef dereferenceable_or_null(16384) ptr @malloc(i64 noundef 16384) #47
  %cmp.i = icmp eq ptr %call.i.i, null
  br i1 %cmp.i, label %assimp_stbi_zlib_decode_malloc_guesssize.exit, label %if.end.i

if.end.i:                                         ; preds = %entry
  store ptr %buffer, ptr %a.i, align 8
  %idx.ext.i = sext i32 %len to i64
  %add.ptr.i = getelementptr inbounds i8, ptr %buffer, i64 %idx.ext.i
  %zbuffer_end.i = getelementptr inbounds i8, ptr %a.i, i64 8
  store ptr %add.ptr.i, ptr %zbuffer_end.i, align 8
  %call1.i = call fastcc noundef i32 @_ZL13stbi__do_zlibP10stbi__zbufPciii(ptr noundef nonnull %a.i, ptr noundef nonnull %call.i.i, i32 noundef 16384, i32 noundef 1, i32 noundef 1), !range !34
  %tobool.not.i = icmp eq i32 %call1.i, 0
  br i1 %tobool.not.i, label %if.else.i, label %if.then2.i

if.then2.i:                                       ; preds = %if.end.i
  %tobool3.not.i = icmp eq ptr %outlen, null
  br i1 %tobool3.not.i, label %if.then2.if.end6_crit_edge.i, label %if.then4.i

if.then2.if.end6_crit_edge.i:                     ; preds = %if.then2.i
  %zout_start7.phi.trans.insert.i = getelementptr inbounds i8, ptr %a.i, i64 32
  %.pre.i = load ptr, ptr %zout_start7.phi.trans.insert.i, align 8
  br label %assimp_stbi_zlib_decode_malloc_guesssize.exit

if.then4.i:                                       ; preds = %if.then2.i
  %zout.i = getelementptr inbounds i8, ptr %a.i, i64 24
  %0 = load ptr, ptr %zout.i, align 8
  %zout_start.i = getelementptr inbounds i8, ptr %a.i, i64 32
  %1 = load ptr, ptr %zout_start.i, align 8
  %sub.ptr.lhs.cast.i = ptrtoint ptr %0 to i64
  %sub.ptr.rhs.cast.i = ptrtoint ptr %1 to i64
  %sub.ptr.sub.i = sub i64 %sub.ptr.lhs.cast.i, %sub.ptr.rhs.cast.i
  %conv5.i = trunc i64 %sub.ptr.sub.i to i32
  store i32 %conv5.i, ptr %outlen, align 4
  br label %assimp_stbi_zlib_decode_malloc_guesssize.exit

if.else.i:                                        ; preds = %if.end.i
  %zout_start8.i = getelementptr inbounds i8, ptr %a.i, i64 32
  %2 = load ptr, ptr %zout_start8.i, align 8
  call void @free(ptr noundef %2) #44
  br label %assimp_stbi_zlib_decode_malloc_guesssize.exit

assimp_stbi_zlib_decode_malloc_guesssize.exit:    ; preds = %entry, %if.then2.if.end6_crit_edge.i, %if.then4.i, %if.else.i
  %retval.0.i = phi ptr [ null, %if.else.i ], [ null, %entry ], [ %.pre.i, %if.then2.if.end6_crit_edge.i ], [ %1, %if.then4.i ]
  call void @llvm.lifetime.end.p0(i64 4096, ptr nonnull %a.i)
  ret ptr %retval.0.i
}